; Function Attrs: mustprogress uwtable
define hidden void @_ZN4cvc58internal6theory5arith6linear10Constraint9propagateEv(ptr noundef nonnull align 8 dereferenceable(145) %this) local_unnamed_addr #4 align 2 {
entry:
  %ref.tmp = alloca ptr, align 8
  %d_database = getelementptr inbounds i8, ptr %this, i64 72
  %0 = load ptr, ptr %d_database, align 8
  %d_toPropagate = getelementptr inbounds i8, ptr %0, i64 96
  store ptr %this, ptr %ref.tmp, align 8
  call void @_ZN4cvc57context6CDListIPKNS_8internal6theory5arith6linear10ConstraintENS0_14DefaultCleanUpIS8_EESaIS8_EE9push_backERKS8_(ptr noundef nonnull align 8 dereferenceable(74) %d_toPropagate, ptr noundef nonnull align 8 dereferenceable(8) %ref.tmp)
  ret void
}